target datalayout = "e-m:e-p270:32:32-p271:32:32-p272:64:64-i64:64-i128:128-f80:128-n8:16:32:64-S128"
target triple = "x86_64-pc-linux-gnu"

%"struct.std::_Vector_base.9" = type { %"struct.std::_Vector_base<ncnn::Yolov3DetectionOutput::BBoxRect, std::allocator<ncnn::Yolov3DetectionOutput::BBoxRect>>::_Vector_impl" }
%"struct.std::_Vector_base<ncnn::Yolov3DetectionOutput::BBoxRect, std::allocator<ncnn::Yolov3DetectionOutput::BBoxRect>>::_Vector_impl" = type { %"struct.std::_Vector_base<ncnn::Yolov3DetectionOutput::BBoxRect, std::allocator<ncnn::Yolov3DetectionOutput::BBoxRect>>::_Vector_impl_data" }
%"struct.std::_Vector_base<ncnn::Yolov3DetectionOutput::BBoxRect, std::allocator<ncnn::Yolov3DetectionOutput::BBoxRect>>::_Vector_impl_data" = type { ptr, ptr, ptr }
%"struct.ncnn::Yolov3DetectionOutput::BBoxRect" = type { float, float, float, float, float, float, i32 }

; Function Attrs: inlinehint mustprogress nounwind uwtable
define linkonce_odr hidden void @_ZSt4swapIN4ncnn21Yolov3DetectionOutput8BBoxRectEENSt9enable_ifIXsr6__and_ISt6__not_ISt15__is_tuple_likeIT_EESt21is_move_constructibleIS6_ESt18is_move_assignableIS6_EEE5valueEvE4typeERS6_SF_(ptr noundef nonnull align 4 dereferenceable(28) %0, ptr noundef nonnull align 4 dereferenceable(28) %1) #9 comdat {
  %3 = alloca ptr, align 8
  %4 = alloca ptr, align 8
  %5 = alloca %"struct.ncnn::Yolov3DetectionOutput::BBoxRect", align 4
  store ptr %0, ptr %3, align 8, !tbaa !57
  store ptr %1, ptr %4, align 8, !tbaa !57
  call void @llvm.lifetime.start.p0(i64 28, ptr %5) #16
  %6 = load ptr, ptr %3, align 8, !tbaa !57
  call void @llvm.memcpy.p0.p0.i64(ptr align 4 %5, ptr align 4 %6, i64 28, i1 false), !tbaa.struct !87
  %7 = load ptr, ptr %4, align 8, !tbaa !57
  %8 = load ptr, ptr %3, align 8, !tbaa !57
  call void @llvm.memcpy.p0.p0.i64(ptr align 4 %8, ptr align 4 %7, i64 28, i1 false), !tbaa.struct !87
  %9 = load ptr, ptr %4, align 8, !tbaa !57
  call void @llvm.memcpy.p0.p0.i64(ptr align 4 %9, ptr align 4 %5, i64 28, i1 false), !tbaa.struct !87
  call void @llvm.lifetime.end.p0(i64 28, ptr %5) #16
  ret void
}

; Function Attrs: mustprogress nounwind uwtable
define linkonce_odr hidden noundef nonnull align 4 dereferenceable(28) ptr @_ZNSt6vectorIN4ncnn21Yolov3DetectionOutput8BBoxRectESaIS2_EEixEm(ptr noundef nonnull align 8 dereferenceable(24) %0, i64 noundef %1) #0 comdat align 2 {
  %3 = alloca ptr, align 8
  %4 = alloca i64, align 8
  store ptr %0, ptr %3, align 8, !tbaa !50
  store i64 %1, ptr %4, align 8, !tbaa !41
  %5 = load ptr, ptr %3, align 8
  %6 = getelementptr inbounds nuw %"struct.std::_Vector_base.9", ptr %5, i32 0, i32 0
  %7 = getelementptr inbounds nuw %"struct.std::_Vector_base<ncnn::Yolov3DetectionOutput::BBoxRect, std::allocator<ncnn::Yolov3DetectionOutput::BBoxRect>>::_Vector_impl_data", ptr %6, i32 0, i32 0
  %8 = load ptr, ptr %7, align 8, !tbaa !85
  %9 = load i64, ptr %4, align 8, !tbaa !41
  %10 = getelementptr inbounds nuw %"struct.ncnn::Yolov3DetectionOutput::BBoxRect", ptr %8, i64 %9
  ret ptr %10
}

; Function Attrs: mustprogress uwtable
define hidden void @_ZNK4ncnn21Yolov3DetectionOutput21qsort_descent_inplaceERSt6vectorINS0_8BBoxRectESaIS2_EEii(ptr noundef nonnull align 8 dereferenceable(456) %0, ptr noundef nonnull align 8 dereferenceable(24) %1, i32 noundef %2, i32 noundef %3) #1 align 2 {
  %5 = alloca ptr, align 8
  %6 = alloca ptr, align 8
  %7 = alloca i32, align 4
  %8 = alloca i32, align 4
  %9 = alloca i32, align 4
  %10 = alloca i32, align 4
  %11 = alloca float, align 4
  store ptr %0, ptr %5, align 8, !tbaa !4
  store ptr %1, ptr %6, align 8, !tbaa !50
  store i32 %2, ptr %7, align 4, !tbaa !44
  store i32 %3, ptr %8, align 4, !tbaa !44
  %12 = load ptr, ptr %5, align 8
  call void @llvm.lifetime.start.p0(i64 4, ptr %9) #16
  %13 = load i32, ptr %7, align 4, !tbaa !44
  store i32 %13, ptr %9, align 4, !tbaa !44
  call void @llvm.lifetime.start.p0(i64 4, ptr %10) #16
  %14 = load i32, ptr %8, align 4, !tbaa !44
  store i32 %14, ptr %10, align 4, !tbaa !44
  call void @llvm.lifetime.start.p0(i64 4, ptr %11) #16
  %15 = load ptr, ptr %6, align 8, !tbaa !50
  %16 = load i32, ptr %7, align 4, !tbaa !44
  %17 = load i32, ptr %8, align 4, !tbaa !44
  %18 = add nsw i32 %16, %17
  %19 = sdiv i32 %18, 2
  %20 = sext i32 %19 to i64
  %21 = call noundef nonnull align 4 dereferenceable(28) ptr @_ZNSt6vectorIN4ncnn21Yolov3DetectionOutput8BBoxRectESaIS2_EEixEm(ptr noundef nonnull align 8 dereferenceable(24) %15, i64 noundef %20) #16
  %22 = getelementptr inbounds nuw %"struct.ncnn::Yolov3DetectionOutput::BBoxRect", ptr %21, i32 0, i32 0
  %23 = load float, ptr %22, align 4, !tbaa !59
  store float %23, ptr %11, align 4, !tbaa !47
  br label %24

24:                                               ; preds = %71, %4
  %25 = load i32, ptr %9, align 4, !tbaa !44
  %26 = load i32, ptr %10, align 4, !tbaa !44
  %27 = icmp sle i32 %25, %26
  br i1 %27, label %28, label %72

28:                                               ; preds = %24
  br label %29

29:                                               ; preds = %38, %28
  %30 = load ptr, ptr %6, align 8, !tbaa !50
  %31 = load i32, ptr %9, align 4, !tbaa !44
  %32 = sext i32 %31 to i64
  %33 = call noundef nonnull align 4 dereferenceable(28) ptr @_ZNSt6vectorIN4ncnn21Yolov3DetectionOutput8BBoxRectESaIS2_EEixEm(ptr noundef nonnull align 8 dereferenceable(24) %30, i64 noundef %32) #16
  %34 = getelementptr inbounds nuw %"struct.ncnn::Yolov3DetectionOutput::BBoxRect", ptr %33, i32 0, i32 0
  %35 = load float, ptr %34, align 4, !tbaa !59
  %36 = load float, ptr %11, align 4, !tbaa !47
  %37 = fcmp fast ogt float %35, %36
  br i1 %37, label %38, label %41

38:                                               ; preds = %29
  %39 = load i32, ptr %9, align 4, !tbaa !44
  %40 = add nsw i32 %39, 1
  store i32 %40, ptr %9, align 4, !tbaa !44
  br label %29, !llvm.loop !82

41:                                               ; preds = %29
  br label %42

42:                                               ; preds = %51, %41
  %43 = load ptr, ptr %6, align 8, !tbaa !50
  %44 = load i32, ptr %10, align 4, !tbaa !44
  %45 = sext i32 %44 to i64
  %46 = call noundef nonnull align 4 dereferenceable(28) ptr @_ZNSt6vectorIN4ncnn21Yolov3DetectionOutput8BBoxRectESaIS2_EEixEm(ptr noundef nonnull align 8 dereferenceable(24) %43, i64 noundef %45) #16
  %47 = getelementptr inbounds nuw %"struct.ncnn::Yolov3DetectionOutput::BBoxRect", ptr %46, i32 0, i32 0
  %48 = load float, ptr %47, align 4, !tbaa !59
  %49 = load float, ptr %11, align 4, !tbaa !47
  %50 = fcmp fast olt float %48, %49
  br i1 %50, label %51, label %54

51:                                               ; preds = %42
  %52 = load i32, ptr %10, align 4, !tbaa !44
  %53 = add nsw i32 %52, -1
  store i32 %53, ptr %10, align 4, !tbaa !44
  br label %42, !llvm.loop !83

54:                                               ; preds = %42
  %55 = load i32, ptr %9, align 4, !tbaa !44
  %56 = load i32, ptr %10, align 4, !tbaa !44
  %57 = icmp sle i32 %55, %56
  br i1 %57, label %58, label %71

58:                                               ; preds = %54
  %59 = load ptr, ptr %6, align 8, !tbaa !50
  %60 = load i32, ptr %9, align 4, !tbaa !44
  %61 = sext i32 %60 to i64
  %62 = call noundef nonnull align 4 dereferenceable(28) ptr @_ZNSt6vectorIN4ncnn21Yolov3DetectionOutput8BBoxRectESaIS2_EEixEm(ptr noundef nonnull align 8 dereferenceable(24) %59, i64 noundef %61) #16
  %63 = load ptr, ptr %6, align 8, !tbaa !50
  %64 = load i32, ptr %10, align 4, !tbaa !44
  %65 = sext i32 %64 to i64
  %66 = call noundef nonnull align 4 dereferenceable(28) ptr @_ZNSt6vectorIN4ncnn21Yolov3DetectionOutput8BBoxRectESaIS2_EEixEm(ptr noundef nonnull align 8 dereferenceable(24) %63, i64 noundef %65) #16
  call void @_ZSt4swapIN4ncnn21Yolov3DetectionOutput8BBoxRectEENSt9enable_ifIXsr6__and_ISt6__not_ISt15__is_tuple_likeIT_EESt21is_move_constructibleIS6_ESt18is_move_assignableIS6_EEE5valueEvE4typeERS6_SF_(ptr noundef nonnull align 4 dereferenceable(28) %62, ptr noundef nonnull align 4 dereferenceable(28) %66) #16
  %67 = load i32, ptr %9, align 4, !tbaa !44
  %68 = add nsw i32 %67, 1
  store i32 %68, ptr %9, align 4, !tbaa !44
  %69 = load i32, ptr %10, align 4, !tbaa !44
  %70 = add nsw i32 %69, -1
  store i32 %70, ptr %10, align 4, !tbaa !44
  br label %71

71:                                               ; preds = %58, %54
  br label %24, !llvm.loop !84

72:                                               ; preds = %24
  %73 = load i32, ptr %7, align 4, !tbaa !44
  %74 = load i32, ptr %10, align 4, !tbaa !44
  %75 = icmp slt i32 %73, %74
  br i1 %75, label %76, label %80

76:                                               ; preds = %72
  %77 = load ptr, ptr %6, align 8, !tbaa !50
  %78 = load i32, ptr %7, align 4, !tbaa !44
  %79 = load i32, ptr %10, align 4, !tbaa !44
  call void @_ZNK4ncnn21Yolov3DetectionOutput21qsort_descent_inplaceERSt6vectorINS0_8BBoxRectESaIS2_EEii(ptr noundef nonnull align 8 dereferenceable(456) %12, ptr noundef nonnull align 8 dereferenceable(24) %77, i32 noundef %78, i32 noundef %79)
  br label %80

80:                                               ; preds = %76, %72
  %81 = load i32, ptr %9, align 4, !tbaa !44
  %82 = load i32, ptr %8, align 4, !tbaa !44
  %83 = icmp slt i32 %81, %82
  br i1 %83, label %84, label %88

84:                                               ; preds = %80
  %85 = load ptr, ptr %6, align 8, !tbaa !50
  %86 = load i32, ptr %9, align 4, !tbaa !44
  %87 = load i32, ptr %8, align 4, !tbaa !44
  call void @_ZNK4ncnn21Yolov3DetectionOutput21qsort_descent_inplaceERSt6vectorINS0_8BBoxRectESaIS2_EEii(ptr noundef nonnull align 8 dereferenceable(456) %12, ptr noundef nonnull align 8 dereferenceable(24) %85, i32 noundef %86, i32 noundef %87)
  br label %88

88:                                               ; preds = %84, %80
  call void @llvm.lifetime.end.p0(i64 4, ptr %11) #16
  call void @llvm.lifetime.end.p0(i64 4, ptr %10) #16
  call void @llvm.lifetime.end.p0(i64 4, ptr %9) #16
  ret void
}