; Function Attrs: mustprogress nofree nosync nounwind memory(readwrite, inaccessiblemem: none) uwtable
define hidden void @_ZNK4ncnn21Yolov3DetectionOutput21qsort_descent_inplaceERSt6vectorINS0_8BBoxRectESaIS2_EEii(ptr noundef nonnull readnone align 8 captures(none) dereferenceable(456) %0, ptr noundef nonnull readonly align 8 captures(none) dereferenceable(24) %1, i32 noundef %2, i32 noundef %3) local_unnamed_addr #9 align 2 {
  %5 = alloca %"struct.ncnn::Yolov3DetectionOutput::BBoxRect", align 4
  %.pre56 = load ptr, ptr %1, align 8, !tbaa !60
  br label %tailrecurse

tailrecurse:                                      ; preds = %34, %4
  %.pre54 = phi ptr [ %.pre56, %4 ], [ %.pre5459, %34 ]
  %6 = phi ptr [ %.pre56, %4 ], [ %35, %34 ]
  %.tr40 = phi i32 [ %2, %4 ], [ %.0.lcssa, %34 ]
  %7 = add nsw i32 %.tr40, %3
  %8 = sdiv i32 %7, 2
  %9 = sext i32 %8 to i64
  %10 = getelementptr inbounds nuw %"struct.ncnn::Yolov3DetectionOutput::BBoxRect", ptr %6, i64 %9
  %11 = load float, ptr %10, align 4, !tbaa !75
  %.not45 = icmp sgt i32 %.tr40, %3
  br i1 %.not45, label %._crit_edge, label %.preheader42

.preheader42:                                     ; preds = %tailrecurse, %29
  %.pre5458 = phi ptr [ %.pre5457, %29 ], [ %.pre54, %tailrecurse ]
  %12 = phi ptr [ %30, %29 ], [ %.pre54, %tailrecurse ]
  %.047 = phi i32 [ %.2, %29 ], [ %.tr40, %tailrecurse ]
  %.03346 = phi i32 [ %.235, %29 ], [ %3, %tailrecurse ]
  %13 = sext i32 %.047 to i64
  br label %14

14:                                               ; preds = %14, %.preheader42
  %indvars.iv = phi i64 [ %indvars.iv.next, %14 ], [ %13, %.preheader42 ]
  %15 = getelementptr inbounds nuw %"struct.ncnn::Yolov3DetectionOutput::BBoxRect", ptr %12, i64 %indvars.iv
  %16 = load float, ptr %15, align 4, !tbaa !75
  %17 = fcmp fast ogt float %16, %11
  %indvars.iv.next = add nsw i64 %indvars.iv, 1
  br i1 %17, label %14, label %.preheader, !llvm.loop !86

.preheader:                                       ; preds = %14
  %18 = sext i32 %.03346 to i64
  br label %19

19:                                               ; preds = %19, %.preheader
  %indvars.iv51 = phi i64 [ %indvars.iv.next52, %19 ], [ %18, %.preheader ]
  %20 = getelementptr inbounds nuw %"struct.ncnn::Yolov3DetectionOutput::BBoxRect", ptr %12, i64 %indvars.iv51
  %21 = load float, ptr %20, align 4, !tbaa !75
  %22 = fcmp fast olt float %21, %11
  %indvars.iv.next52 = add nsw i64 %indvars.iv51, -1
  br i1 %22, label %19, label %23, !llvm.loop !87

23:                                               ; preds = %19
  %24 = trunc nsw i64 %indvars.iv to i32
  %25 = trunc nsw i64 %indvars.iv51 to i32
  %.not38 = icmp sgt i64 %indvars.iv, %indvars.iv51
  br i1 %.not38, label %29, label %26

26:                                               ; preds = %23
  call void @llvm.lifetime.start.p0(i64 28, ptr nonnull %5)
  call void @llvm.memcpy.p0.p0.i64(ptr noundef nonnull align 4 dereferenceable(28) %5, ptr noundef nonnull align 4 dereferenceable(28) %15, i64 28, i1 false), !tbaa.struct !72
  tail call void @llvm.memcpy.p0.p0.i64(ptr noundef nonnull align 4 dereferenceable(28) %15, ptr noundef nonnull align 4 dereferenceable(28) %20, i64 28, i1 false), !tbaa.struct !72
  call void @llvm.memcpy.p0.p0.i64(ptr noundef nonnull align 4 dereferenceable(28) %20, ptr noundef nonnull align 4 dereferenceable(28) %5, i64 28, i1 false), !tbaa.struct !72
  call void @llvm.lifetime.end.p0(i64 28, ptr nonnull %5)
  %27 = add nsw i32 %24, 1
  %28 = add nsw i32 %25, -1
  %.pre = load ptr, ptr %1, align 8, !tbaa !60
  br label %29

29:                                               ; preds = %26, %23
  %.pre5457 = phi ptr [ %.pre, %26 ], [ %.pre5458, %23 ]
  %30 = phi ptr [ %.pre, %26 ], [ %12, %23 ]
  %.235 = phi i32 [ %28, %26 ], [ %25, %23 ]
  %.2 = phi i32 [ %27, %26 ], [ %24, %23 ]
  %.not = icmp sgt i32 %.2, %.235
  br i1 %.not, label %._crit_edge, label %.preheader42, !llvm.loop !88

._crit_edge:                                      ; preds = %29, %tailrecurse
  %.pre5460 = phi ptr [ %.pre54, %tailrecurse ], [ %.pre5457, %29 ]
  %31 = phi ptr [ %6, %tailrecurse ], [ %30, %29 ]
  %.033.lcssa = phi i32 [ %3, %tailrecurse ], [ %.235, %29 ]
  %.0.lcssa = phi i32 [ %.tr40, %tailrecurse ], [ %.2, %29 ]
  %32 = icmp slt i32 %.tr40, %.033.lcssa
  br i1 %32, label %33, label %34

33:                                               ; preds = %._crit_edge
  tail call void @_ZNK4ncnn21Yolov3DetectionOutput21qsort_descent_inplaceERSt6vectorINS0_8BBoxRectESaIS2_EEii(ptr noundef nonnull align 8 dereferenceable(456) %0, ptr noundef nonnull align 8 dereferenceable(24) %1, i32 noundef %.tr40, i32 noundef %.033.lcssa)
  %.pre55 = load ptr, ptr %1, align 8, !tbaa !60
  br label %34

34:                                               ; preds = %33, %._crit_edge
  %.pre5459 = phi ptr [ %.pre55, %33 ], [ %.pre5460, %._crit_edge ]
  %35 = phi ptr [ %.pre55, %33 ], [ %31, %._crit_edge ]
  %36 = icmp slt i32 %.0.lcssa, %3
  br i1 %36, label %tailrecurse, label %37

37:                                               ; preds = %34
  ret void
}